	.file	"factorial.c"
	.text
	.globl	factorial
	.type	factorial, @function
factorial:
.LFB2:
	.cfi_startproc
	pushq	%rbp
	.cfi_def_cfa_offset 16
	.cfi_offset 6, -16
	movq	%rsp, %rbp
	.cfi_def_cfa_register 6
	pushq	%rbx
	subq	$24, %rsp
	.cfi_offset 3, -24
	movl	%edi, -20(%rbp)
	cmpl	$0, -20(%rbp)
	jne	.L2
	movl	$1, %eax
	jmp	.L3
.L2:
	movl	-20(%rbp), %eax
	movslq	%eax, %rbx
	movl	-20(%rbp), %eax
	subl	$1, %eax
	movl	%eax, %edi
	call	factorial
	imulq	%rbx, %rax
.L3:
	addq	$24, %rsp
	popq	%rbx
	popq	%rbp
	.cfi_def_cfa 7, 8
	ret
	.cfi_endproc
.LFE2:
	.size	factorial, .-factorial
	.section	.rodata
.LC0:
	.string	"factorial(%d) = %ld\n"
	.text
	.globl	main
	.type	main, @function
main:
.LFB3:
	.cfi_startproc
	pushq	%rbp
	.cfi_def_cfa_offset 16
	.cfi_offset 6, -16
	movq	%rsp, %rbp
	.cfi_def_cfa_register 6
	subq	$32, %rsp
	movl	%edi, -20(%rbp)
	movq	%rsi, -32(%rbp)
	movl	$0, -4(%rbp)
	movq	-32(%rbp), %rax
	addq	$8, %rax
	movq	(%rax), %rax
	movq	%rax, %rdi
	call	atof
	cvttsd2si	%xmm0, %eax
	movl	%eax, %edi
	call	factorial
	movq	%rax, %rdx
	movl	-4(%rbp), %eax
	movl	%eax, %esi
	movl	$.LC0, %edi
	movl	$0, %eax
	call	printf
	movl	$0, %eax
	leave
	.cfi_def_cfa 7, 8
	ret
	.cfi_endproc
.LFE3:
	.size	main, .-main
	.ident	"GCC: (Ubuntu 5.4.0-6ubuntu1~16.04.5) 5.4.0 20160609"
	.section	.note.GNU-stack,"",@progbits
